target datalayout = "e-m:e-p270:32:32-p271:32:32-p272:64:64-i64:64-i128:128-f80:128-n8:16:32:64-S128"
target triple = "x86_64-pc-linux-gnu"

@.str.45 = private unnamed_addr constant [9 x i8] c"NO_ERROR\00", align 1
@.str.46 = private unnamed_addr constant [15 x i8] c"PROTOCOL_ERROR\00", align 1
@.str.47 = private unnamed_addr constant [15 x i8] c"INTERNAL_ERROR\00", align 1
@.str.48 = private unnamed_addr constant [19 x i8] c"FLOW_CONTROL_ERROR\00", align 1
@.str.49 = private unnamed_addr constant [17 x i8] c"SETTINGS_TIMEOUT\00", align 1
@.str.50 = private unnamed_addr constant [14 x i8] c"STREAM_CLOSED\00", align 1
@.str.51 = private unnamed_addr constant [17 x i8] c"FRAME_SIZE_ERROR\00", align 1
@.str.52 = private unnamed_addr constant [15 x i8] c"REFUSED_STREAM\00", align 1
@.str.53 = private unnamed_addr constant [7 x i8] c"CANCEL\00", align 1
@.str.54 = private unnamed_addr constant [18 x i8] c"COMPRESSION_ERROR\00", align 1
@.str.55 = private unnamed_addr constant [14 x i8] c"CONNECT_ERROR\00", align 1
@.str.56 = private unnamed_addr constant [18 x i8] c"ENHANCE_YOUR_CALM\00", align 1
@.str.57 = private unnamed_addr constant [20 x i8] c"INADEQUATE_SECURITY\00", align 1
@.str.58 = private unnamed_addr constant [18 x i8] c"HTTP_1_1_REQUIRED\00", align 1
@.str.59 = private unnamed_addr constant [8 x i8] c"unknown\00", align 1

; Function Attrs: nounwind uwtable
define ptr @nghttp2_http2_strerror(i32 noundef %0) #0 {
  %2 = alloca ptr, align 8
  %3 = alloca i32, align 4
  store i32 %0, ptr %3, align 4, !tbaa !10
  %4 = load i32, ptr %3, align 4, !tbaa !10
  switch i32 %4, label %19 [
    i32 0, label %5
    i32 1, label %6
    i32 2, label %7
    i32 3, label %8
    i32 4, label %9
    i32 5, label %10
    i32 6, label %11
    i32 7, label %12
    i32 8, label %13
    i32 9, label %14
    i32 10, label %15
    i32 11, label %16
    i32 12, label %17
    i32 13, label %18
  ]

5:                                                ; preds = %1
  store ptr @.str.45, ptr %2, align 8
  br label %20

6:                                                ; preds = %1
  store ptr @.str.46, ptr %2, align 8
  br label %20

7:                                                ; preds = %1
  store ptr @.str.47, ptr %2, align 8
  br label %20

8:                                                ; preds = %1
  store ptr @.str.48, ptr %2, align 8
  br label %20

9:                                                ; preds = %1
  store ptr @.str.49, ptr %2, align 8
  br label %20

10:                                               ; preds = %1
  store ptr @.str.50, ptr %2, align 8
  br label %20

11:                                               ; preds = %1
  store ptr @.str.51, ptr %2, align 8
  br label %20

12:                                               ; preds = %1
  store ptr @.str.52, ptr %2, align 8
  br label %20

13:                                               ; preds = %1
  store ptr @.str.53, ptr %2, align 8
  br label %20

14:                                               ; preds = %1
  store ptr @.str.54, ptr %2, align 8
  br label %20

15:                                               ; preds = %1
  store ptr @.str.55, ptr %2, align 8
  br label %20

16:                                               ; preds = %1
  store ptr @.str.56, ptr %2, align 8
  br label %20

17:                                               ; preds = %1
  store ptr @.str.57, ptr %2, align 8
  br label %20

18:                                               ; preds = %1
  store ptr @.str.58, ptr %2, align 8
  br label %20

19:                                               ; preds = %1
  store ptr @.str.59, ptr %2, align 8
  br label %20

20:                                               ; preds = %19, %18, %17, %16, %15, %14, %13, %12, %11, %10, %9, %8, %7, %6, %5
  %21 = load ptr, ptr %2, align 8
  ret ptr %21
}